target datalayout = "e-m:e-p270:32:32-p271:32:32-p272:64:64-i64:64-i128:128-f80:128-n8:16:32:64-S128"
target triple = "x86_64-unknown-linux-gnu"

%"class.icu_75::UnicodeString" = type { %"class.icu_75::Replaceable", %"union.icu_75::UnicodeString::StackBufferOrFields" }
%"class.icu_75::Replaceable" = type { %"class.icu_75::UObject" }
%"class.icu_75::UObject" = type { ptr }
%"union.icu_75::UnicodeString::StackBufferOrFields" = type { %struct.anon.0, [32 x i8] }
%struct.anon.0 = type { i16, i32, i32, ptr }
%"class.icu_75::numparse::impl::DecimalMatcher" = type { %"class.icu_75::numparse::impl::NumberParseMatcher", i8, i8, i8, i16, i16, %"class.icu_75::UnicodeString", %"class.icu_75::UnicodeString", ptr, ptr, ptr, ptr, %"class.icu_75::LocalPointer", %"class.icu_75::LocalPointer", %"class.icu_75::LocalArray" }
%"class.icu_75::numparse::impl::NumberParseMatcher" = type { ptr }
%"class.icu_75::LocalPointer" = type { %"class.icu_75::LocalPointerBase" }
%"class.icu_75::LocalPointerBase" = type { ptr }
%"class.icu_75::LocalArray" = type { %"class.icu_75::LocalPointerBase.1" }
%"class.icu_75::LocalPointerBase.1" = type { ptr }

; Function Attrs: mustprogress nounwind uwtable
define linkonce_odr noundef nonnull align 8 dereferenceable(64) ptr @_ZNK6icu_7510LocalArrayIKNS_13UnicodeStringEEixEl(ptr noundef nonnull align 8 dereferenceable(8) %this, i64 noundef %i) #1 comdat align 2 {
entry:
  %this.addr = alloca ptr, align 8
  %i.addr = alloca i64, align 8
  store ptr %this, ptr %this.addr, align 8
  store i64 %i, ptr %i.addr, align 8
  %this1 = load ptr, ptr %this.addr, align 8
  %ptr = getelementptr inbounds %"class.icu_75::LocalPointerBase.1", ptr %this1, i32 0, i32 0
  %0 = load ptr, ptr %ptr, align 8
  %1 = load i64, ptr %i.addr, align 8
  %arrayidx = getelementptr inbounds %"class.icu_75::UnicodeString", ptr %0, i64 %1
  ret ptr %arrayidx
}

; Function Attrs: mustprogress nounwind uwtable
define linkonce_odr noundef signext i8 @_ZNK6icu_7516LocalPointerBaseIKNS_13UnicodeStringEE6isNullEv(ptr noundef nonnull align 8 dereferenceable(8) %this) #1 comdat align 2 {
entry:
  %this.addr = alloca ptr, align 8
  store ptr %this, ptr %this.addr, align 8
  %this1 = load ptr, ptr %this.addr, align 8
  %ptr = getelementptr inbounds %"class.icu_75::LocalPointerBase.1", ptr %this1, i32 0, i32 0
  %0 = load ptr, ptr %ptr, align 8
  %cmp = icmp eq ptr %0, null
  %conv = zext i1 %cmp to i8
  ret i8 %conv
}

; Function Attrs: mustprogress uwtable
define noundef zeroext i1 @_ZNK6icu_758numparse4impl14DecimalMatcher9smokeTestERKNS_13StringSegmentE(ptr noundef nonnull align 8 dereferenceable(200) %this, ptr noundef nonnull align 8 dereferenceable(17) %segment) unnamed_addr #0 align 2 {
entry:
  %retval = alloca i1, align 1
  %this.addr = alloca ptr, align 8
  %segment.addr = alloca ptr, align 8
  %i = alloca i32, align 4
  store ptr %this, ptr %this.addr, align 8
  store ptr %segment, ptr %segment.addr, align 8
  %this1 = load ptr, ptr %this.addr, align 8
  %fLocalDigitStrings = getelementptr inbounds %"class.icu_75::numparse::impl::DecimalMatcher", ptr %this1, i32 0, i32 14
  %call = call noundef signext i8 @_ZNK6icu_7516LocalPointerBaseIKNS_13UnicodeStringEE6isNullEv(ptr noundef nonnull align 8 dereferenceable(8) %fLocalDigitStrings)
  %tobool = icmp ne i8 %call, 0
  br i1 %tobool, label %land.lhs.true, label %if.end

land.lhs.true:                                    ; preds = %entry
  %leadSet = getelementptr inbounds %"class.icu_75::numparse::impl::DecimalMatcher", ptr %this1, i32 0, i32 11
  %0 = load ptr, ptr %leadSet, align 8
  %cmp = icmp ne ptr %0, null
  br i1 %cmp, label %if.then, label %if.end

if.then:                                          ; preds = %land.lhs.true
  %1 = load ptr, ptr %segment.addr, align 8
  %leadSet2 = getelementptr inbounds %"class.icu_75::numparse::impl::DecimalMatcher", ptr %this1, i32 0, i32 11
  %2 = load ptr, ptr %leadSet2, align 8
  %call3 = call noundef zeroext i1 @_ZNK6icu_7513StringSegment10startsWithERKNS_10UnicodeSetE(ptr noundef nonnull align 8 dereferenceable(17) %1, ptr noundef nonnull align 8 dereferenceable(200) %2)
  store i1 %call3, ptr %retval, align 1
  br label %return

if.end:                                           ; preds = %land.lhs.true, %entry
  %3 = load ptr, ptr %segment.addr, align 8
  %separatorSet = getelementptr inbounds %"class.icu_75::numparse::impl::DecimalMatcher", ptr %this1, i32 0, i32 10
  %4 = load ptr, ptr %separatorSet, align 8
  %call4 = call noundef zeroext i1 @_ZNK6icu_7513StringSegment10startsWithERKNS_10UnicodeSetE(ptr noundef nonnull align 8 dereferenceable(17) %3, ptr noundef nonnull align 8 dereferenceable(200) %4)
  br i1 %call4, label %if.then8, label %lor.lhs.false

lor.lhs.false:                                    ; preds = %if.end
  %5 = load ptr, ptr %segment.addr, align 8
  %call5 = call noundef i32 @_ZNK6icu_7513StringSegment12getCodePointEv(ptr noundef nonnull align 8 dereferenceable(17) %5)
  %call6 = call signext i8 @u_isdigit_75(i32 noundef %call5)
  %tobool7 = icmp ne i8 %call6, 0
  br i1 %tobool7, label %if.then8, label %if.end9

if.then8:                                         ; preds = %lor.lhs.false, %if.end
  store i1 true, ptr %retval, align 1
  br label %return

if.end9:                                          ; preds = %lor.lhs.false
  %fLocalDigitStrings10 = getelementptr inbounds %"class.icu_75::numparse::impl::DecimalMatcher", ptr %this1, i32 0, i32 14
  %call11 = call noundef signext i8 @_ZNK6icu_7516LocalPointerBaseIKNS_13UnicodeStringEE6isNullEv(ptr noundef nonnull align 8 dereferenceable(8) %fLocalDigitStrings10)
  %tobool12 = icmp ne i8 %call11, 0
  br i1 %tobool12, label %if.then13, label %if.end14

if.then13:                                        ; preds = %if.end9
  store i1 false, ptr %retval, align 1
  br label %return

if.end14:                                         ; preds = %if.end9
  store i32 0, ptr %i, align 4
  br label %for.cond

for.cond:                                         ; preds = %for.inc, %if.end14
  %6 = load i32, ptr %i, align 4
  %cmp15 = icmp slt i32 %6, 10
  br i1 %cmp15, label %for.body, label %for.end

for.body:                                         ; preds = %for.cond
  %7 = load ptr, ptr %segment.addr, align 8
  %fLocalDigitStrings16 = getelementptr inbounds %"class.icu_75::numparse::impl::DecimalMatcher", ptr %this1, i32 0, i32 14
  %8 = load i32, ptr %i, align 4
  %conv = sext i32 %8 to i64
  %call17 = call noundef nonnull align 8 dereferenceable(64) ptr @_ZNK6icu_7510LocalArrayIKNS_13UnicodeStringEEixEl(ptr noundef nonnull align 8 dereferenceable(8) %fLocalDigitStrings16, i64 noundef %conv)
  %call18 = call noundef zeroext i1 @_ZNK6icu_7513StringSegment10startsWithERKNS_13UnicodeStringE(ptr noundef nonnull align 8 dereferenceable(17) %7, ptr noundef nonnull align 8 dereferenceable(64) %call17)
  br i1 %call18, label %if.then19, label %if.end20

if.then19:                                        ; preds = %for.body
  store i1 true, ptr %retval, align 1
  br label %return

if.end20:                                         ; preds = %for.body
  br label %for.inc

for.inc:                                          ; preds = %if.end20
  %9 = load i32, ptr %i, align 4
  %inc = add nsw i32 %9, 1
  store i32 %inc, ptr %i, align 4
  br label %for.cond, !llvm.loop !8

for.end:                                          ; preds = %for.cond
  store i1 false, ptr %retval, align 1
  br label %return

return:                                           ; preds = %for.end, %if.then19, %if.then13, %if.then8, %if.then
  %10 = load i1, ptr %retval, align 1
  ret i1 %10
}