; Function Attrs: mustprogress uwtable
define noundef zeroext i1 @_ZNK6icu_758numparse4impl14DecimalMatcher9smokeTestERKNS_13StringSegmentE(ptr nocapture noundef nonnull readonly align 8 dereferenceable(200) %this, ptr noundef nonnull align 8 dereferenceable(17) %segment) unnamed_addr #0 align 2 {
entry:
  %fLocalDigitStrings = getelementptr inbounds i8, ptr %this, i64 192
  %0 = load ptr, ptr %fLocalDigitStrings, align 8
  %cmp.i.not = icmp eq ptr %0, null
  br i1 %cmp.i.not, label %land.lhs.true, label %if.end

land.lhs.true:                                    ; preds = %entry
  %leadSet = getelementptr inbounds i8, ptr %this, i64 168
  %1 = load ptr, ptr %leadSet, align 8
  %cmp.not = icmp eq ptr %1, null
  br i1 %cmp.not, label %if.end, label %if.then

if.then:                                          ; preds = %land.lhs.true
  %call3 = tail call noundef zeroext i1 @_ZNK6icu_7513StringSegment10startsWithERKNS_10UnicodeSetE(ptr noundef nonnull align 8 dereferenceable(17) %segment, ptr noundef nonnull align 8 dereferenceable(200) %1)
  br label %return

if.end:                                           ; preds = %land.lhs.true, %entry
  %separatorSet = getelementptr inbounds i8, ptr %this, i64 160
  %2 = load ptr, ptr %separatorSet, align 8
  %call4 = tail call noundef zeroext i1 @_ZNK6icu_7513StringSegment10startsWithERKNS_10UnicodeSetE(ptr noundef nonnull align 8 dereferenceable(17) %segment, ptr noundef nonnull align 8 dereferenceable(200) %2)
  br i1 %call4, label %return, label %lor.lhs.false

lor.lhs.false:                                    ; preds = %if.end
  %call5 = tail call noundef i32 @_ZNK6icu_7513StringSegment12getCodePointEv(ptr noundef nonnull align 8 dereferenceable(17) %segment)
  %call6 = tail call signext i8 @u_isdigit_75(i32 noundef %call5)
  %tobool7.not = icmp eq i8 %call6, 0
  br i1 %tobool7.not, label %if.end9, label %return

if.end9:                                          ; preds = %lor.lhs.false
  %3 = load ptr, ptr %fLocalDigitStrings, align 8
  %cmp.i6.not = icmp eq ptr %3, null
  br i1 %cmp.i6.not, label %return, label %for.body

for.body:                                         ; preds = %if.end9, %for.body
  %indvars.iv = phi i64 [ %indvars.iv.next, %for.body ], [ 0, %if.end9 ]
  %4 = load ptr, ptr %fLocalDigitStrings, align 8
  %arrayidx.i = getelementptr inbounds %"class.icu_75::UnicodeString", ptr %4, i64 %indvars.iv
  %call18 = tail call noundef zeroext i1 @_ZNK6icu_7513StringSegment10startsWithERKNS_13UnicodeStringE(ptr noundef nonnull align 8 dereferenceable(17) %segment, ptr noundef nonnull align 8 dereferenceable(64) %arrayidx.i)
  %indvars.iv.next = add nuw nsw i64 %indvars.iv, 1
  %exitcond.not = icmp eq i64 %indvars.iv.next, 10
  %or.cond = select i1 %call18, i1 true, i1 %exitcond.not
  br i1 %or.cond, label %return, label %for.body, !llvm.loop !8

return:                                           ; preds = %for.body, %if.end9, %if.end, %lor.lhs.false, %if.then
  %retval.0 = phi i1 [ %call3, %if.then ], [ true, %lor.lhs.false ], [ true, %if.end ], [ false, %if.end9 ], [ %call18, %for.body ]
  ret i1 %retval.0
}